target datalayout = "e-m:e-p270:32:32-p271:32:32-p272:64:64-i64:64-i128:128-f80:128-n8:16:32:64-S128"
target triple = "x86_64-pc-linux-gnu"

%"class.std::_Function_base" = type { %"union.std::_Any_data", ptr }
%"union.std::_Any_data" = type { %"union.std::_Nocopy_types" }
%"union.std::_Nocopy_types" = type { { i64, i64 } }
%"class.cmJSONHelperBuilder::Object" = type <{ %"class.std::vector", i8, [7 x i8], %"class.std::function.0", i8, [7 x i8] }>
%"class.std::vector" = type { %"struct.std::_Vector_base" }
%"struct.std::_Vector_base" = type { %"struct.std::_Vector_base<cmJSONHelperBuilder::Object<cmCMakePresetsGraph::BuildPreset>::Member, std::allocator<cmJSONHelperBuilder::Object<cmCMakePresetsGraph::BuildPreset>::Member>>::_Vector_impl" }
%"struct.std::_Vector_base<cmJSONHelperBuilder::Object<cmCMakePresetsGraph::BuildPreset>::Member, std::allocator<cmJSONHelperBuilder::Object<cmCMakePresetsGraph::BuildPreset>::Member>>::_Vector_impl" = type { %"struct.std::_Vector_base<cmJSONHelperBuilder::Object<cmCMakePresetsGraph::BuildPreset>::Member, std::allocator<cmJSONHelperBuilder::Object<cmCMakePresetsGraph::BuildPreset>::Member>>::_Vector_impl_data" }
%"struct.std::_Vector_base<cmJSONHelperBuilder::Object<cmCMakePresetsGraph::BuildPreset>::Member, std::allocator<cmJSONHelperBuilder::Object<cmCMakePresetsGraph::BuildPreset>::Member>>::_Vector_impl_data" = type { ptr, ptr, ptr }
%"class.std::function.0" = type { %"class.std::_Function_base", ptr }
%"class.std::function.7" = type { %"class.std::_Function_base", ptr }
%"class.std::function.2" = type { %"class.std::_Function_base", ptr }

@__dso_handle = external hidden global i8
@_ZN12_GLOBAL__N_117BuildPresetHelperE = internal global %"class.cmJSONHelperBuilder::Object" zeroinitializer, align 8
@_ZZN27cmCMakePresetsGraphInternal18BuildPresetsHelperERSt6vectorIN19cmCMakePresetsGraph11BuildPresetESaIS2_EEPKN4Json5ValueEP11cmJSONStateE6helper = internal global %"class.std::function.7" zeroinitializer, align 8
@_ZGVZN27cmCMakePresetsGraphInternal18BuildPresetsHelperERSt6vectorIN19cmCMakePresetsGraph11BuildPresetESaIS2_EEPKN4Json5ValueEP11cmJSONStateE6helper = internal global i64 0, align 8

; Function Attrs: mustprogress nounwind uwtable
define linkonce_odr dso_local noundef ptr @_ZNSt9_Any_data9_M_accessEv(ptr noundef nonnull align 8 dereferenceable(16) %0) #4 comdat align 2 {
  %2 = alloca ptr, align 8
  store ptr %0, ptr %2, align 8
  %3 = load ptr, ptr %2, align 8
  %4 = getelementptr inbounds [16 x i8], ptr %3, i64 0, i64 0
  ret ptr %4
}

; Function Attrs: mustprogress nounwind uwtable
define linkonce_odr dso_local void @_ZNSt14_Function_base13_Base_managerIPFvPKN4Json5ValueEP11cmJSONStateEE9_M_createIRS7_EEvRSt9_Any_dataOT_St17integral_constantIbLb1EE(ptr noundef nonnull align 8 dereferenceable(16) %0, ptr noundef nonnull %1) #4 comdat align 2 {
  %3 = alloca ptr, align 8
  %4 = alloca ptr, align 8
  store ptr %0, ptr %3, align 8
  store ptr %1, ptr %4, align 8
  %5 = load ptr, ptr %3, align 8
  %6 = call noundef ptr @_ZNSt9_Any_data9_M_accessEv(ptr noundef nonnull align 8 dereferenceable(16) %5) #3
  %7 = load ptr, ptr %4, align 8
  store ptr %7, ptr %6, align 8
  ret void
}

; Function Attrs: mustprogress nounwind uwtable
define linkonce_odr dso_local noundef zeroext i1 @_ZNKSt14_Function_base8_M_emptyEv(ptr noundef nonnull align 8 dereferenceable(24) %0) #4 comdat align 2 {
  %2 = alloca ptr, align 8
  store ptr %0, ptr %2, align 8
  %3 = load ptr, ptr %2, align 8
  %4 = getelementptr inbounds %"class.std::_Function_base", ptr %3, i32 0, i32 1
  %5 = load ptr, ptr %4, align 8
  %6 = icmp ne ptr %5, null
  %7 = xor i1 %6, true
  ret i1 %7
}

; Function Attrs: mustprogress nounwind uwtable
define linkonce_odr dso_local void @_ZNSt14_Function_baseD2Ev(ptr noundef nonnull align 8 dereferenceable(24) %0) unnamed_addr #4 comdat align 2 personality ptr @__gxx_personality_v0 {
  %2 = alloca ptr, align 8
  store ptr %0, ptr %2, align 8
  %3 = load ptr, ptr %2, align 8
  %4 = getelementptr inbounds %"class.std::_Function_base", ptr %3, i32 0, i32 1
  %5 = load ptr, ptr %4, align 8
  %6 = icmp ne ptr %5, null
  br i1 %6, label %7, label %14

7:                                                ; preds = %1
  %8 = getelementptr inbounds %"class.std::_Function_base", ptr %3, i32 0, i32 1
  %9 = load ptr, ptr %8, align 8
  %10 = getelementptr inbounds %"class.std::_Function_base", ptr %3, i32 0, i32 0
  %11 = getelementptr inbounds %"class.std::_Function_base", ptr %3, i32 0, i32 0
  %12 = invoke noundef zeroext i1 %9(ptr noundef nonnull align 8 dereferenceable(16) %10, ptr noundef nonnull align 8 dereferenceable(16) %11, i32 noundef 3)
          to label %13 unwind label %15

13:                                               ; preds = %7
  br label %14

14:                                               ; preds = %13, %1
  ret void

15:                                               ; preds = %7
  %16 = landingpad { ptr, i32 }
          catch ptr null
  %17 = extractvalue { ptr, i32 } %16, 0
  call void @__clang_call_terminate(ptr %17) #14
  unreachable
}

; Function Attrs: mustprogress nounwind uwtable
define linkonce_odr dso_local void @_ZNSt14_Function_base13_Base_managerIPFvPKN4Json5ValueEP11cmJSONStateEE15_M_init_functorIRS7_EEvRSt9_Any_dataOT_(ptr noundef nonnull align 8 dereferenceable(16) %0, ptr noundef nonnull %1) #4 comdat align 2 personality ptr @__gxx_personality_v0 {
  %3 = alloca ptr, align 8
  %4 = alloca ptr, align 8
  store ptr %0, ptr %3, align 8
  store ptr %1, ptr %4, align 8
  %5 = load ptr, ptr %3, align 8
  %6 = load ptr, ptr %4, align 8
  invoke void @_ZNSt14_Function_base13_Base_managerIPFvPKN4Json5ValueEP11cmJSONStateEE9_M_createIRS7_EEvRSt9_Any_dataOT_St17integral_constantIbLb1EE(ptr noundef nonnull align 8 dereferenceable(16) %5, ptr noundef nonnull %6)
          to label %7 unwind label %8

7:                                                ; preds = %2
  ret void

8:                                                ; preds = %2
  %9 = landingpad { ptr, i32 }
          catch ptr null
  %10 = extractvalue { ptr, i32 } %9, 0
  call void @__clang_call_terminate(ptr %10) #14
  unreachable
}

; Function Attrs: mustprogress nounwind uwtable
define linkonce_odr dso_local noundef zeroext i1 @_ZNSt14_Function_base13_Base_managerIPFvPKN4Json5ValueEP11cmJSONStateEE21_M_not_empty_functionIS7_EEbPT_(ptr noundef %0) #4 comdat align 2 {
  %2 = alloca ptr, align 8
  store ptr %0, ptr %2, align 8
  %3 = load ptr, ptr %2, align 8
  %4 = icmp ne ptr %3, null
  ret i1 %4
}

; Function Attrs: mustprogress nounwind uwtable
define linkonce_odr dso_local void @_ZNSt14_Function_baseC2Ev(ptr noundef nonnull align 8 dereferenceable(24) %0) unnamed_addr #4 comdat align 2 {
  %2 = alloca ptr, align 8
  store ptr %0, ptr %2, align 8
  %3 = load ptr, ptr %2, align 8
  %4 = getelementptr inbounds %"class.std::_Function_base", ptr %3, i32 0, i32 0
  store ptr null, ptr %4, align 8
  %5 = getelementptr inbounds %"class.std::_Function_base", ptr %3, i32 0, i32 1
  store ptr null, ptr %5, align 8
  ret void
}

; Function Attrs: mustprogress uwtable
define linkonce_odr dso_local noundef zeroext i1 @_ZNKSt8functionIFbRSt6vectorIN19cmCMakePresetsGraph11BuildPresetESaIS2_EEPKN4Json5ValueEP11cmJSONStateEEclES5_S9_SB_(ptr noundef nonnull align 8 dereferenceable(32) %0, ptr noundef nonnull align 1 %1, ptr noundef %2, ptr noundef %3) #5 comdat align 2 {
  %5 = alloca ptr, align 8
  %6 = alloca ptr, align 8
  %7 = alloca ptr, align 8
  %8 = alloca ptr, align 8
  store ptr %0, ptr %5, align 8
  store ptr %1, ptr %6, align 8
  store ptr %2, ptr %7, align 8
  store ptr %3, ptr %8, align 8
  %9 = load ptr, ptr %5, align 8
  %10 = call noundef zeroext i1 @_ZNKSt14_Function_base8_M_emptyEv(ptr noundef nonnull align 8 dereferenceable(24) %9)
  br i1 %10, label %11, label %12

11:                                               ; preds = %4
  call void @_ZSt25__throw_bad_function_callv() #13
  unreachable

12:                                               ; preds = %4
  %13 = getelementptr inbounds %"class.std::function.7", ptr %9, i32 0, i32 1
  %14 = load ptr, ptr %13, align 8
  %15 = getelementptr inbounds %"class.std::_Function_base", ptr %9, i32 0, i32 0
  %16 = load ptr, ptr %6, align 8
  %17 = call noundef zeroext i1 %14(ptr noundef nonnull align 8 dereferenceable(16) %15, ptr noundef nonnull align 8 dereferenceable(24) %16, ptr noundef nonnull align 8 dereferenceable(8) %7, ptr noundef nonnull align 8 dereferenceable(8) %8)
  ret i1 %17
}

; Function Attrs: mustprogress nounwind uwtable
define linkonce_odr dso_local void @_ZNSt8functionIFvPKN4Json5ValueEP11cmJSONStateEED2Ev(ptr noundef nonnull align 8 dereferenceable(32) %0) unnamed_addr #4 comdat align 2 {
  %2 = alloca ptr, align 8
  store ptr %0, ptr %2, align 8
  %3 = load ptr, ptr %2, align 8
  call void @_ZNSt14_Function_baseD2Ev(ptr noundef nonnull align 8 dereferenceable(24) %3) #3
  ret void
}

; Function Attrs: mustprogress nounwind uwtable
define linkonce_odr dso_local void @_ZNSt8functionIFvPKN4Json5ValueEP11cmJSONStateEEC2IRS6_vEEOT_(ptr noundef nonnull align 8 dereferenceable(32) %0, ptr noundef nonnull %1) unnamed_addr #4 comdat align 2 {
  %3 = alloca ptr, align 8
  %4 = alloca ptr, align 8
  store ptr %0, ptr %3, align 8
  store ptr %1, ptr %4, align 8
  %5 = load ptr, ptr %3, align 8
  %6 = getelementptr inbounds i8, ptr %5, i64 0
  call void @llvm.memset.p0.i64(ptr align 8 %6, i8 0, i64 24, i1 false)
  call void @_ZNSt14_Function_baseC2Ev(ptr noundef nonnull align 8 dereferenceable(24) %5) #3
  %7 = getelementptr inbounds %"class.std::function.2", ptr %5, i32 0, i32 1
  store ptr null, ptr %7, align 8
  %8 = load ptr, ptr %4, align 8
  %9 = call noundef zeroext i1 @_ZNSt14_Function_base13_Base_managerIPFvPKN4Json5ValueEP11cmJSONStateEE21_M_not_empty_functionIS7_EEbPT_(ptr noundef %8) #3
  br i1 %9, label %10, label %15

10:                                               ; preds = %2
  %11 = getelementptr inbounds %"class.std::_Function_base", ptr %5, i32 0, i32 0
  %12 = load ptr, ptr %4, align 8
  call void @_ZNSt14_Function_base13_Base_managerIPFvPKN4Json5ValueEP11cmJSONStateEE15_M_init_functorIRS7_EEvRSt9_Any_dataOT_(ptr noundef nonnull align 8 dereferenceable(16) %11, ptr noundef nonnull %12) #3
  %13 = getelementptr inbounds %"class.std::function.2", ptr %5, i32 0, i32 1
  store ptr @_ZNSt17_Function_handlerIFvPKN4Json5ValueEP11cmJSONStateEPS6_E9_M_invokeERKSt9_Any_dataOS3_OS5_, ptr %13, align 8
  %14 = getelementptr inbounds %"class.std::_Function_base", ptr %5, i32 0, i32 1
  store ptr @_ZNSt17_Function_handlerIFvPKN4Json5ValueEP11cmJSONStateEPS6_E10_M_managerERSt9_Any_dataRKS9_St18_Manager_operation, ptr %14, align 8
  br label %15

15:                                               ; preds = %10, %2
  ret void
}

; Function Attrs: mustprogress uwtable
define dso_local noundef zeroext i1 @_ZN27cmCMakePresetsGraphInternal18BuildPresetsHelperERSt6vectorIN19cmCMakePresetsGraph11BuildPresetESaIS2_EEPKN4Json5ValueEP11cmJSONState(ptr noundef nonnull align 1 %0, ptr noundef %1, ptr noundef %2) #5 personality ptr @__gxx_personality_v0 {
  %4 = alloca ptr, align 8
  %5 = alloca ptr, align 8
  %6 = alloca ptr, align 8
  %7 = alloca %"class.std::function.2", align 8
  %8 = alloca %"class.cmJSONHelperBuilder::Object", align 8
  %9 = alloca ptr, align 8
  %10 = alloca i32, align 4
  store ptr %0, ptr %4, align 8
  store ptr %1, ptr %5, align 8
  store ptr %2, ptr %6, align 8
  %11 = load atomic i8, ptr @_ZGVZN27cmCMakePresetsGraphInternal18BuildPresetsHelperERSt6vectorIN19cmCMakePresetsGraph11BuildPresetESaIS2_EEPKN4Json5ValueEP11cmJSONStateE6helper acquire, align 8
  %12 = icmp eq i8 %11, 0
  br i1 %12, label %13, label %20, !prof !5

13:                                               ; preds = %3
  %14 = call i32 @__cxa_guard_acquire(ptr @_ZGVZN27cmCMakePresetsGraphInternal18BuildPresetsHelperERSt6vectorIN19cmCMakePresetsGraph11BuildPresetESaIS2_EEPKN4Json5ValueEP11cmJSONStateE6helper) #3
  %15 = icmp ne i32 %14, 0
  br i1 %15, label %16, label %20

16:                                               ; preds = %13
  call void @_ZNSt8functionIFvPKN4Json5ValueEP11cmJSONStateEEC2IRS6_vEEOT_(ptr noundef nonnull align 8 dereferenceable(32) %7, ptr noundef nonnull @_ZN20cmCMakePresetsErrors15INVALID_PRESETSEPKN4Json5ValueEP11cmJSONState) #3
  invoke void @_ZN19cmJSONHelperBuilder6ObjectIN19cmCMakePresetsGraph11BuildPresetEEC2ERKS3_(ptr noundef nonnull align 8 dereferenceable(65) %8, ptr noundef nonnull align 8 dereferenceable(65) @_ZN12_GLOBAL__N_117BuildPresetHelperE)
          to label %17 unwind label %25

17:                                               ; preds = %16
  invoke void @_ZN19cmJSONHelperBuilder6VectorIN19cmCMakePresetsGraph11BuildPresetENS_6ObjectIS2_EEEESt8functionIFbRSt6vectorIT_SaIS7_EEPKN4Json5ValueEP11cmJSONStateEES5_IFvSE_SG_EET0_(ptr dead_on_unwind writable sret(%"class.std::function.7") align 8 @_ZZN27cmCMakePresetsGraphInternal18BuildPresetsHelperERSt6vectorIN19cmCMakePresetsGraph11BuildPresetESaIS2_EEPKN4Json5ValueEP11cmJSONStateE6helper, ptr noundef %7, ptr noundef %8)
          to label %18 unwind label %29

18:                                               ; preds = %17
  call void @_ZN19cmJSONHelperBuilder6ObjectIN19cmCMakePresetsGraph11BuildPresetEED2Ev(ptr noundef nonnull align 8 dereferenceable(65) %8) #3
  call void @_ZNSt8functionIFvPKN4Json5ValueEP11cmJSONStateEED2Ev(ptr noundef nonnull align 8 dereferenceable(32) %7) #3
  %19 = call i32 @__cxa_atexit(ptr @_ZNSt8functionIFbRSt6vectorIN19cmCMakePresetsGraph11BuildPresetESaIS2_EEPKN4Json5ValueEP11cmJSONStateEED2Ev, ptr @_ZZN27cmCMakePresetsGraphInternal18BuildPresetsHelperERSt6vectorIN19cmCMakePresetsGraph11BuildPresetESaIS2_EEPKN4Json5ValueEP11cmJSONStateE6helper, ptr @__dso_handle) #3
  call void @__cxa_guard_release(ptr @_ZGVZN27cmCMakePresetsGraphInternal18BuildPresetsHelperERSt6vectorIN19cmCMakePresetsGraph11BuildPresetESaIS2_EEPKN4Json5ValueEP11cmJSONStateE6helper) #3
  br label %20

20:                                               ; preds = %18, %13, %3
  %21 = load ptr, ptr %4, align 8
  %22 = load ptr, ptr %5, align 8
  %23 = load ptr, ptr %6, align 8
  %24 = call noundef zeroext i1 @_ZNKSt8functionIFbRSt6vectorIN19cmCMakePresetsGraph11BuildPresetESaIS2_EEPKN4Json5ValueEP11cmJSONStateEEclES5_S9_SB_(ptr noundef nonnull align 8 dereferenceable(32) @_ZZN27cmCMakePresetsGraphInternal18BuildPresetsHelperERSt6vectorIN19cmCMakePresetsGraph11BuildPresetESaIS2_EEPKN4Json5ValueEP11cmJSONStateE6helper, ptr noundef nonnull align 1 %21, ptr noundef %22, ptr noundef %23)
  ret i1 %24

25:                                               ; preds = %16
  %26 = landingpad { ptr, i32 }
          cleanup
  %27 = extractvalue { ptr, i32 } %26, 0
  store ptr %27, ptr %9, align 8
  %28 = extractvalue { ptr, i32 } %26, 1
  store i32 %28, ptr %10, align 4
  br label %33

29:                                               ; preds = %17
  %30 = landingpad { ptr, i32 }
          cleanup
  %31 = extractvalue { ptr, i32 } %30, 0
  store ptr %31, ptr %9, align 8
  %32 = extractvalue { ptr, i32 } %30, 1
  store i32 %32, ptr %10, align 4
  call void @_ZN19cmJSONHelperBuilder6ObjectIN19cmCMakePresetsGraph11BuildPresetEED2Ev(ptr noundef nonnull align 8 dereferenceable(65) %8) #3
  br label %33

33:                                               ; preds = %29, %25
  call void @_ZNSt8functionIFvPKN4Json5ValueEP11cmJSONStateEED2Ev(ptr noundef nonnull align 8 dereferenceable(32) %7) #3
  call void @__cxa_guard_abort(ptr @_ZGVZN27cmCMakePresetsGraphInternal18BuildPresetsHelperERSt6vectorIN19cmCMakePresetsGraph11BuildPresetESaIS2_EEPKN4Json5ValueEP11cmJSONStateE6helper) #3
  br label %34

34:                                               ; preds = %33
  %35 = load ptr, ptr %9, align 8
  %36 = load i32, ptr %10, align 4
  %37 = insertvalue { ptr, i32 } poison, ptr %35, 0
  %38 = insertvalue { ptr, i32 } %37, i32 %36, 1
  resume { ptr, i32 } %38
}